Certificate:
    Data:
        Version: 3 (0x2)
        Serial Number: 10003212956370811127 (0x8ad28d2f3d1138f7)
    Signature Algorithm: sha256WithRSAEncryption
        Issuer: C=JP, ST=Tokyo, O=IBMJ, OU=TRL, CN=trl.ibm.com
        Validity
            Not Before: Apr  3 02:08:40 2017 GMT
            Not After : Apr  1 02:08:40 2027 GMT
        Subject: C=JP, ST=Tokyo, O=IBMJ, OU=TRL, CN=peer3
        Subject Public Key Info:
            Public Key Algorithm: rsaEncryption
                Public-Key: (1024 bit)
                Modulus:
                    00:bf:a4:6f:1c:a9:97:8a:54:86:31:c8:73:5b:26:
                    8b:6c:0c:84:24:e3:a2:2d:a5:77:50:f2:fd:af:ee:
                    07:f4:a1:e9:1b:41:e6:28:00:61:8a:9f:24:6f:3c:
                    1f:6a:ce:07:40:5a:fd:29:26:a3:0d:67:d5:41:c0:
                    56:de:70:fa:80:ed:10:6f:9c:9c:42:d3:85:95:16:
                    fa:1f:e3:51:40:1b:9c:2e:9a:c3:e2:39:cf:9f:dd:
                    e6:07:0a:64:e4:af:65:a1:b9:ec:2b:0c:9c:61:10:
                    04:91:ad:8f:eb:e0:1e:e2:74:55:13:15:0f:26:5c:
                    63:4f:d0:12:0f:1c:a1:d6:bf
                Exponent: 65537 (0x10001)
        X509v3 extensions:
            X509v3 Basic Constraints: 
                CA:FALSE
            Netscape Comment: 
                OpenSSL Generated Certificate
            X509v3 Subject Key Identifier: 
                A5:7B:A0:C6:9A:25:0B:0A:75:5E:8F:21:5C:F0:A9:57:BF:95:B4:09
            X509v3 Authority Key Identifier: 
                keyid:AA:46:58:E0:B0:49:37:74:E7:7D:68:85:65:5C:67:89:CF:A1:A1:FE

    Signature Algorithm: sha256WithRSAEncryption
         83:d4:20:39:7c:d3:f4:e8:c1:00:8f:c8:b7:46:c3:49:ea:18:
         fd:b5:ec:9a:3f:50:ad:a9:be:16:4f:57:f2:b0:be:4a:75:0a:
         6b:f3:c5:d8:eb:5c:45:53:41:f8:b3:5d:f9:dd:64:37:02:bb:
         36:ff:eb:38:f3:6e:fe:3a:56:f4:27:a3:10:67:7d:b2:6a:ba:
         20:76:7a:7d:9f:70:fd:7b:bb:80:c0:b7:82:b0:4b:b9:b1:d3:
         b6:f2:70:dd:7c:eb:f8:b7:ee:84:b1:0b:1d:aa:ab:b3:31:41:
         94:fa:1b:77:c9:24:ec:3d:17:dd:eb:ce:33:12:7b:3e:12:3e:
         7b:c2:83:5b:07:ad:c6:3d:c5:4b:39:c5:db:29:50:51:99:db:
         70:ea:6f:2d:38:00:f3:c7:27:0c:6f:98:c7:6b:5b:01:12:e9:
         ae:f7:2e:ab:d0:de:51:9f:0a:c7:74:78:f2:59:d0:a6:e1:62:
         7a:29:1a:96:7c:95:f0:2c:20:6b:a5:2b:60:34:2b:7a:57:b6:
         e8:b8:59:3f:cd:3c:01:24:5d:b4:08:ae:40:55:9f:84:89:c4:
         f8:27:fa:ba:72:b4:9f:2e:b8:84:cd:a7:7a:55:aa:a9:00:d2:
         9c:7e:bd:70:01:4b:a6:4e:d6:25:b1:dc:52:06:b5:98:b6:c1:
         c9:91:5f:25
-----BEGIN CERTIFICATE-----
MIIDFDCCAfygAwIBAgIJAIrSjS89ETj3MA0GCSqGSIb3DQEBCwUAMFAxCzAJBgNV
BAYTAkpQMQ4wDAYDVQQIDAVUb2t5bzENMAsGA1UECgwESUJNSjEMMAoGA1UECwwD
VFJMMRQwEgYDVQQDDAt0cmwuaWJtLmNvbTAeFw0xNzA0MDMwMjA4NDBaFw0yNzA0
MDEwMjA4NDBaMEoxCzAJBgNVBAYTAkpQMQ4wDAYDVQQIDAVUb2t5bzENMAsGA1UE
CgwESUJNSjEMMAoGA1UECwwDVFJMMQ4wDAYDVQQDDAVwZWVyMzCBnzANBgkqhkiG
9w0BAQEFAAOBjQAwgYkCgYEAv6RvHKmXilSGMchzWyaLbAyEJOOiLaV3UPL9r+4H
9KHpG0HmKABhip8kbzwfas4HQFr9KSajDWfVQcBW3nD6gO0Qb5ycQtOFlRb6H+NR
QBucLprD4jnPn93mBwpk5K9lobnsKwycYRAEka2P6+Ae4nRVExUPJlxjT9ASDxyh
1r8CAwEAAaN7MHkwCQYDVR0TBAIwADAsBglghkgBhvhCAQ0EHxYdT3BlblNTTCBH
ZW5lcmF0ZWQgQ2VydGlmaWNhdGUwHQYDVR0OBBYEFKV7oMaaJQsKdV6PIVzwqVe/
lbQJMB8GA1UdIwQYMBaAFKpGWOCwSTd0531ohWVcZ4nPoaH+MA0GCSqGSIb3DQEB
CwUAA4IBAQCD1CA5fNP06MEAj8i3RsNJ6hj9teyaP1Ctqb4WT1fysL5KdQpr88XY
61xFU0H4s1353WQ3Ars2/+s4827+Olb0J6MQZ32yarogdnp9n3D9e7uAwLeCsEu5
sdO28nDdfOv4t+6EsQsdqquzMUGU+ht3ySTsPRfd684zEns+Ej57woNbB63GPcVL
OcXbKVBRmdtw6m8tOADzxycMb5jHa1sBEumu9y6r0N5RnwrHdHjyWdCm4WJ6KRqW
fJXwLCBrpStgNCt6V7bouFk/zTwBJF20CK5AVZ+EicT4J/q6crSfLriEzad6Vaqp
ANKcfr1wAUumTtYlsdxSBrWYtsHJkV8l
-----END CERTIFICATE-----
