Certificate:
    Data:
        Version: 3 (0x2)
        Serial Number: 10003212956370811126 (0x8ad28d2f3d1138f6)
    Signature Algorithm: sha256WithRSAEncryption
        Issuer: C=JP, ST=Tokyo, O=IBMJ, OU=TRL, CN=trl.ibm.com
        Validity
            Not Before: Apr  3 02:08:04 2017 GMT
            Not After : Apr  1 02:08:04 2027 GMT
        Subject: C=JP, ST=Tokyo, O=IBMJ, OU=TRL, CN=peer2
        Subject Public Key Info:
            Public Key Algorithm: rsaEncryption
                Public-Key: (1024 bit)
                Modulus:
                    00:99:1d:f3:a7:2f:0c:3b:79:38:99:04:14:75:2a:
                    14:20:b1:81:86:01:71:5c:65:98:ca:ad:36:23:f2:
                    60:96:cb:83:90:b8:8c:f3:55:ae:ad:3a:1d:9e:1e:
                    44:91:1d:63:bb:f5:95:ed:71:35:e6:b5:ca:b0:af:
                    1f:e3:57:ed:bb:0f:a2:46:b4:9a:c4:cc:c2:42:fb:
                    56:76:b6:e9:1c:42:76:c8:fd:5d:68:95:f2:33:04:
                    d6:bb:9d:2b:51:cd:77:0e:44:08:e9:d7:52:10:34:
                    ad:3c:9e:75:eb:14:7f:2a:4b:72:25:88:cc:da:29:
                    9d:6b:fa:54:63:da:d4:a3:2d
                Exponent: 65537 (0x10001)
        X509v3 extensions:
            X509v3 Basic Constraints: 
                CA:FALSE
            Netscape Comment: 
                OpenSSL Generated Certificate
            X509v3 Subject Key Identifier: 
                28:E3:C5:A4:A3:12:D3:D2:0C:69:40:AF:D1:45:A4:25:99:42:C9:78
            X509v3 Authority Key Identifier: 
                keyid:AA:46:58:E0:B0:49:37:74:E7:7D:68:85:65:5C:67:89:CF:A1:A1:FE

    Signature Algorithm: sha256WithRSAEncryption
         0c:ea:83:e8:25:57:07:29:a8:d0:a5:29:f5:44:38:4a:ef:36:
         ad:a4:a0:32:7f:72:fb:63:72:de:ab:6c:cd:3b:8d:f5:bb:4e:
         f3:13:30:5b:17:98:8f:74:67:51:69:71:18:20:47:ad:cc:38:
         d3:2a:fa:4a:90:48:38:d5:1b:53:23:8a:a2:45:3b:a4:36:f4:
         3c:7d:00:8a:f1:72:6e:80:f2:61:96:9d:be:2d:20:1f:4b:0d:
         61:dc:53:32:cf:81:f2:78:ab:3b:a0:9b:74:a5:72:52:a2:dc:
         7d:38:6a:af:f1:df:25:ce:02:f4:7a:96:96:fe:ef:d0:e8:69:
         eb:6f:41:5d:f6:c5:a0:6f:fb:da:02:3e:a8:e5:a7:64:62:a6:
         b9:3f:54:1b:3b:ab:47:cd:49:ed:a9:e4:4a:7d:2f:12:83:49:
         66:6f:52:1a:22:6a:6b:45:03:ff:ca:32:e5:42:0e:e1:3c:90:
         5b:89:97:67:b1:ea:62:10:23:a6:c1:59:12:f0:72:77:e0:9a:
         6b:7f:42:5c:13:5c:66:0c:4a:01:d4:07:82:36:80:b2:71:fc:
         b0:f4:2b:b1:79:ed:7b:9f:3c:96:d3:4b:3f:ba:31:f1:fe:b6:
         ba:a7:55:09:30:f1:3b:da:90:1f:a8:a1:c2:2a:ec:ae:59:d0:
         2d:da:ef:7c
-----BEGIN CERTIFICATE-----
MIIDFDCCAfygAwIBAgIJAIrSjS89ETj2MA0GCSqGSIb3DQEBCwUAMFAxCzAJBgNV
BAYTAkpQMQ4wDAYDVQQIDAVUb2t5bzENMAsGA1UECgwESUJNSjEMMAoGA1UECwwD
VFJMMRQwEgYDVQQDDAt0cmwuaWJtLmNvbTAeFw0xNzA0MDMwMjA4MDRaFw0yNzA0
MDEwMjA4MDRaMEoxCzAJBgNVBAYTAkpQMQ4wDAYDVQQIDAVUb2t5bzENMAsGA1UE
CgwESUJNSjEMMAoGA1UECwwDVFJMMQ4wDAYDVQQDDAVwZWVyMjCBnzANBgkqhkiG
9w0BAQEFAAOBjQAwgYkCgYEAmR3zpy8MO3k4mQQUdSoUILGBhgFxXGWYyq02I/Jg
lsuDkLiM81WurTodnh5EkR1ju/WV7XE15rXKsK8f41ftuw+iRrSaxMzCQvtWdrbp
HEJ2yP1daJXyMwTWu50rUc13DkQI6ddSEDStPJ516xR/KktyJYjM2imda/pUY9rU
oy0CAwEAAaN7MHkwCQYDVR0TBAIwADAsBglghkgBhvhCAQ0EHxYdT3BlblNTTCBH
ZW5lcmF0ZWQgQ2VydGlmaWNhdGUwHQYDVR0OBBYEFCjjxaSjEtPSDGlAr9FFpCWZ
Qsl4MB8GA1UdIwQYMBaAFKpGWOCwSTd0531ohWVcZ4nPoaH+MA0GCSqGSIb3DQEB
CwUAA4IBAQAM6oPoJVcHKajQpSn1RDhK7zatpKAyf3L7Y3Leq2zNO431u07zEzBb
F5iPdGdRaXEYIEetzDjTKvpKkEg41RtTI4qiRTukNvQ8fQCK8XJugPJhlp2+LSAf
Sw1h3FMyz4HyeKs7oJt0pXJSotx9OGqv8d8lzgL0epaW/u/Q6Gnrb0Fd9sWgb/va
Aj6o5adkYqa5P1QbO6tHzUntqeRKfS8Sg0lmb1IaImprRQP/yjLlQg7hPJBbiZdn
sepiECOmwVkS8HJ34Jprf0JcE1xmDEoB1AeCNoCycfyw9Cuxee17nzyW00s/ujHx
/ra6p1UJMPE72pAfqKHCKuyuWdAt2u98
-----END CERTIFICATE-----
