Certificate:
    Data:
        Version: 3 (0x2)
        Serial Number: 10003212956370811117 (0x8ad28d2f3d1138ed)
    Signature Algorithm: sha256WithRSAEncryption
        Issuer: C=JP, ST=Tokyo, O=IBMJ, OU=TRL, CN=trl.ibm.com
        Validity
            Not Before: Mar 29 07:31:55 2017 GMT
            Not After : Mar 28 07:31:55 2020 GMT
        Subject: C=JP, ST=Tokyo, O=IBMJ, OU=TRL, CN=trl.ibm.com
        Subject Public Key Info:
            Public Key Algorithm: rsaEncryption
                Public-Key: (2048 bit)
                Modulus:
                    00:c4:60:f4:4b:c4:6a:09:78:d4:90:d4:74:b5:99:
                    91:2e:e0:44:2d:08:64:7f:f8:62:e1:08:a0:07:12:
                    c1:d4:d8:cd:79:71:ac:cc:6a:b7:c7:ec:c6:58:12:
                    33:b1:41:6d:03:7b:fd:98:28:fc:de:90:f9:4a:0e:
                    a9:ee:45:aa:03:0d:a0:e4:80:b5:9c:8b:6b:b5:b1:
                    93:ee:61:13:e4:c4:91:53:87:2f:06:64:e8:15:ea:
                    13:b9:48:77:c3:97:c1:56:7f:83:37:95:17:9c:c5:
                    40:03:eb:46:d9:0f:88:54:39:7a:ea:88:cc:22:07:
                    d1:eb:59:a0:e9:d8:80:72:9f:4c:1e:b7:00:2e:e3:
                    29:c5:f1:19:80:d3:e1:34:d8:a3:0d:9c:a0:62:c7:
                    31:1d:94:e1:33:81:d3:0e:58:bf:23:68:7d:4a:b5:
                    d1:69:56:63:f0:77:c7:03:2b:bb:2f:a3:38:7a:62:
                    cd:e7:30:e9:93:f3:fb:67:59:c6:01:da:47:35:67:
                    95:c0:88:d2:24:81:0b:31:ad:18:fe:f4:15:7d:bd:
                    3d:ea:16:27:3d:6f:9a:b9:e2:ef:5f:08:27:ef:6d:
                    15:d0:7c:0f:4b:80:7b:b1:16:ab:a8:4a:31:b5:a1:
                    d6:c1:42:82:d0:3b:46:de:d6:af:f0:d4:72:4e:48:
                    01:ab
                Exponent: 65537 (0x10001)
        X509v3 extensions:
            X509v3 Subject Key Identifier: 
                AA:46:58:E0:B0:49:37:74:E7:7D:68:85:65:5C:67:89:CF:A1:A1:FE
            X509v3 Authority Key Identifier: 
                keyid:AA:46:58:E0:B0:49:37:74:E7:7D:68:85:65:5C:67:89:CF:A1:A1:FE

            X509v3 Basic Constraints: 
                CA:TRUE
    Signature Algorithm: sha256WithRSAEncryption
         69:e4:78:35:ba:b0:12:b7:ea:69:ac:e9:90:54:9a:97:8d:77:
         8f:2f:9c:22:a5:02:08:dc:4b:81:3c:50:af:b5:f2:26:1f:8f:
         17:ec:5b:b6:6c:44:20:86:63:cd:8b:c9:39:56:3d:b2:c7:65:
         bc:13:3a:f0:d9:15:ad:1a:b4:df:61:7a:ec:eb:c2:9b:ed:0b:
         8a:87:b2:18:2d:b3:09:11:a9:72:44:df:1f:c0:05:92:eb:4d:
         5e:3e:d2:81:f7:05:31:29:59:80:b5:19:a9:0f:dd:e9:61:cc:
         20:76:29:ed:0e:52:fb:b4:8d:00:87:80:04:3b:d4:f3:e8:27:
         f9:56:4e:32:3e:f3:27:e6:f0:ea:43:18:43:d0:28:47:5c:98:
         e0:0b:ba:ab:bc:7e:21:7f:26:bb:18:b1:fb:55:84:d8:77:76:
         8d:1f:a4:83:00:ed:38:38:2b:48:c3:92:1b:06:35:7e:7b:c3:
         ab:01:b8:0f:f4:67:2c:77:e6:9b:04:1a:f9:2f:4b:ec:56:e2:
         c8:3c:c2:79:08:94:8f:9b:44:eb:10:a4:61:6f:1c:93:91:37:
         02:9f:c5:05:f3:32:b6:b6:cf:71:0e:72:29:98:29:47:0c:2d:
         7c:06:49:44:24:88:ab:c9:fe:fd:9a:a2:e6:00:0d:8f:11:6e:
         b2:2d:38:4d
-----BEGIN CERTIFICATE-----
MIIDczCCAlugAwIBAgIJAIrSjS89ETjtMA0GCSqGSIb3DQEBCwUAMFAxCzAJBgNV
BAYTAkpQMQ4wDAYDVQQIDAVUb2t5bzENMAsGA1UECgwESUJNSjEMMAoGA1UECwwD
VFJMMRQwEgYDVQQDDAt0cmwuaWJtLmNvbTAeFw0xNzAzMjkwNzMxNTVaFw0yMDAz
MjgwNzMxNTVaMFAxCzAJBgNVBAYTAkpQMQ4wDAYDVQQIDAVUb2t5bzENMAsGA1UE
CgwESUJNSjEMMAoGA1UECwwDVFJMMRQwEgYDVQQDDAt0cmwuaWJtLmNvbTCCASIw
DQYJKoZIhvcNAQEBBQADggEPADCCAQoCggEBAMRg9EvEagl41JDUdLWZkS7gRC0I
ZH/4YuEIoAcSwdTYzXlxrMxqt8fsxlgSM7FBbQN7/Zgo/N6Q+UoOqe5FqgMNoOSA
tZyLa7Wxk+5hE+TEkVOHLwZk6BXqE7lId8OXwVZ/gzeVF5zFQAPrRtkPiFQ5euqI
zCIH0etZoOnYgHKfTB63AC7jKcXxGYDT4TTYow2coGLHMR2U4TOB0w5YvyNofUq1
0WlWY/B3xwMruy+jOHpizecw6ZPz+2dZxgHaRzVnlcCI0iSBCzGtGP70FX29PeoW
Jz1vmrni718IJ+9tFdB8D0uAe7EWq6hKMbWh1sFCgtA7Rt7Wr/DUck5IAasCAwEA
AaNQME4wHQYDVR0OBBYEFKpGWOCwSTd0531ohWVcZ4nPoaH+MB8GA1UdIwQYMBaA
FKpGWOCwSTd0531ohWVcZ4nPoaH+MAwGA1UdEwQFMAMBAf8wDQYJKoZIhvcNAQEL
BQADggEBAGnkeDW6sBK36mms6ZBUmpeNd48vnCKlAgjcS4E8UK+18iYfjxfsW7Zs
RCCGY82LyTlWPbLHZbwTOvDZFa0atN9heuzrwpvtC4qHshgtswkRqXJE3x/ABZLr
TV4+0oH3BTEpWYC1GakP3elhzCB2Ke0OUvu0jQCHgAQ71PPoJ/lWTjI+8yfm8OpD
GEPQKEdcmOALuqu8fiF/JrsYsftVhNh3do0fpIMA7Tg4K0jDkhsGNX57w6sBuA/0
Zyx35psEGvkvS+xW4sg8wnkIlI+bROsQpGFvHJORNwKfxQXzMra2z3EOcimYKUcM
LXwGSUQkiKvJ/v2aouYADY8RbrItOE0=
-----END CERTIFICATE-----
