Certificate:
    Data:
        Version: 3 (0x2)
        Serial Number: 10003212956370811123 (0x8ad28d2f3d1138f3)
    Signature Algorithm: sha256WithRSAEncryption
        Issuer: C=JP, ST=Tokyo, O=IBMJ, OU=TRL, CN=trl.ibm.com
        Validity
            Not Before: Apr  3 02:02:38 2017 GMT
            Not After : Apr  1 02:02:38 2027 GMT
        Subject: C=JP, ST=Tokyo, O=IBMJ, OU=TRL, CN=orderer0
        Subject Public Key Info:
            Public Key Algorithm: rsaEncryption
                Public-Key: (1024 bit)
                Modulus:
                    00:dd:e0:18:f0:15:74:72:ab:89:a7:be:ad:70:5a:
                    93:52:f6:2e:d3:6f:e0:88:c6:95:16:73:8f:4c:8d:
                    46:05:fe:6a:97:39:0e:63:97:03:5b:58:d8:04:4c:
                    40:9d:4d:94:61:9a:8d:4d:14:c5:f5:18:22:42:7b:
                    af:6a:75:53:67:f7:f8:89:8b:cd:d7:f3:3e:5d:a9:
                    8a:c8:9b:2b:13:0f:d8:c0:a7:4f:ca:ae:14:4e:c9:
                    7f:9d:de:9e:c8:ab:b4:2a:65:28:42:ea:ce:22:89:
                    51:0a:d3:38:b0:13:e4:78:91:8a:8e:a4:83:27:de:
                    db:f2:11:3f:44:09:35:c3:ab
                Exponent: 65537 (0x10001)
        X509v3 extensions:
            X509v3 Basic Constraints: 
                CA:FALSE
            Netscape Comment: 
                OpenSSL Generated Certificate
            X509v3 Subject Key Identifier: 
                94:C0:96:0A:3E:4F:E8:A7:09:4C:3D:70:EC:5F:DA:64:95:FB:0C:1D
            X509v3 Authority Key Identifier: 
                keyid:AA:46:58:E0:B0:49:37:74:E7:7D:68:85:65:5C:67:89:CF:A1:A1:FE

    Signature Algorithm: sha256WithRSAEncryption
         1a:91:fd:1a:b4:97:c7:52:63:db:47:22:2b:b7:92:bc:c3:68:
         a4:29:b7:ab:4d:df:33:7c:93:8b:be:ae:25:b1:df:8f:4a:03:
         ba:2f:fc:53:30:a1:b8:e9:9b:b3:86:95:23:6f:55:46:e3:65:
         74:44:e8:04:d3:56:43:5b:af:dc:1d:39:91:89:f8:2a:33:e3:
         9f:91:53:f1:d8:57:8d:c3:57:57:ba:d2:77:01:5d:f3:99:50:
         44:77:74:af:02:83:50:60:96:a4:86:4b:b6:aa:35:77:16:c0:
         89:ec:cb:eb:e8:4f:be:57:ec:52:aa:56:e1:8b:f7:09:ac:88:
         31:73:eb:fe:be:0b:ce:b6:2b:c4:7a:fe:a0:37:b2:11:20:13:
         08:53:81:10:61:ac:c4:05:31:53:da:26:13:6c:ff:c9:8d:9f:
         65:2f:43:23:50:45:0a:84:11:65:44:e8:9d:52:0c:eb:44:dc:
         0a:68:63:73:29:46:65:0d:ab:8d:df:b1:c5:e4:35:6f:2c:d0:
         a8:02:8e:76:19:43:91:96:5d:03:c5:7e:91:07:31:7d:cb:a2:
         73:5c:36:06:a4:1b:ce:77:65:c4:af:43:b6:35:ce:df:ba:0b:
         d4:e6:32:b5:88:5b:09:0f:b2:ba:32:00:94:b0:b8:8c:08:78:
         70:89:4f:04
-----BEGIN CERTIFICATE-----
MIIDFzCCAf+gAwIBAgIJAIrSjS89ETjzMA0GCSqGSIb3DQEBCwUAMFAxCzAJBgNV
BAYTAkpQMQ4wDAYDVQQIDAVUb2t5bzENMAsGA1UECgwESUJNSjEMMAoGA1UECwwD
VFJMMRQwEgYDVQQDDAt0cmwuaWJtLmNvbTAeFw0xNzA0MDMwMjAyMzhaFw0yNzA0
MDEwMjAyMzhaME0xCzAJBgNVBAYTAkpQMQ4wDAYDVQQIDAVUb2t5bzENMAsGA1UE
CgwESUJNSjEMMAoGA1UECwwDVFJMMREwDwYDVQQDDAhvcmRlcmVyMDCBnzANBgkq
hkiG9w0BAQEFAAOBjQAwgYkCgYEA3eAY8BV0cquJp76tcFqTUvYu02/giMaVFnOP
TI1GBf5qlzkOY5cDW1jYBExAnU2UYZqNTRTF9RgiQnuvanVTZ/f4iYvN1/M+XamK
yJsrEw/YwKdPyq4UTsl/nd6eyKu0KmUoQurOIolRCtM4sBPkeJGKjqSDJ97b8hE/
RAk1w6sCAwEAAaN7MHkwCQYDVR0TBAIwADAsBglghkgBhvhCAQ0EHxYdT3BlblNT
TCBHZW5lcmF0ZWQgQ2VydGlmaWNhdGUwHQYDVR0OBBYEFJTAlgo+T+inCUw9cOxf
2mSV+wwdMB8GA1UdIwQYMBaAFKpGWOCwSTd0531ohWVcZ4nPoaH+MA0GCSqGSIb3
DQEBCwUAA4IBAQAakf0atJfHUmPbRyIrt5K8w2ikKberTd8zfJOLvq4lsd+PSgO6
L/xTMKG46ZuzhpUjb1VG42V0ROgE01ZDW6/cHTmRifgqM+OfkVPx2FeNw1dXutJ3
AV3zmVBEd3SvAoNQYJakhku2qjV3FsCJ7Mvr6E++V+xSqlbhi/cJrIgxc+v+vgvO
tivEev6gN7IRIBMIU4EQYazEBTFT2iYTbP/JjZ9lL0MjUEUKhBFlROidUgzrRNwK
aGNzKUZlDauN37HF5DVvLNCoAo52GUORll0DxX6RBzF9y6JzXDYGpBvOd2XEr0O2
Nc7fugvU5jK1iFsJD7K6MgCUsLiMCHhwiU8E
-----END CERTIFICATE-----
