Certificate:
    Data:
        Version: 3 (0x2)
        Serial Number: 10003212956370811125 (0x8ad28d2f3d1138f5)
    Signature Algorithm: sha256WithRSAEncryption
        Issuer: C=JP, ST=Tokyo, O=IBMJ, OU=TRL, CN=trl.ibm.com
        Validity
            Not Before: Apr  3 02:07:18 2017 GMT
            Not After : Apr  1 02:07:18 2027 GMT
        Subject: C=JP, ST=Tokyo, O=IBMJ, OU=TRL, CN=peer1
        Subject Public Key Info:
            Public Key Algorithm: rsaEncryption
                Public-Key: (1024 bit)
                Modulus:
                    00:dc:60:4c:eb:1b:cc:ba:2a:bd:dc:71:7f:41:66:
                    75:80:06:59:5a:9f:56:16:62:ba:e7:e3:39:b9:1a:
                    cd:f8:ea:0f:02:4f:10:df:5b:f7:f4:37:29:b7:83:
                    29:de:d3:14:6b:45:90:c0:0d:85:ed:b8:52:eb:fc:
                    74:02:d8:b8:5c:a5:03:98:41:f2:34:60:3a:4b:7e:
                    cc:2d:b4:e6:37:2f:43:10:4f:03:fa:00:89:4f:2e:
                    21:04:03:ac:5e:87:86:85:a2:80:60:9f:36:81:1e:
                    9d:5b:13:34:fa:87:b8:29:c5:bc:89:3d:0d:c6:6d:
                    95:02:54:89:4f:bb:1f:10:75
                Exponent: 65537 (0x10001)
        X509v3 extensions:
            X509v3 Basic Constraints: 
                CA:FALSE
            Netscape Comment: 
                OpenSSL Generated Certificate
            X509v3 Subject Key Identifier: 
                0E:E6:11:F9:99:7A:6B:37:D4:74:6B:72:BB:56:73:CA:02:96:8F:42
            X509v3 Authority Key Identifier: 
                keyid:AA:46:58:E0:B0:49:37:74:E7:7D:68:85:65:5C:67:89:CF:A1:A1:FE

    Signature Algorithm: sha256WithRSAEncryption
         44:dc:a2:1b:35:d6:b1:25:e9:4f:d0:c2:77:8d:05:2b:cc:52:
         5a:23:90:c6:a5:18:79:be:6c:1c:3f:25:6b:cd:e4:47:af:11:
         d3:d1:c9:cb:2f:28:15:77:86:a1:bc:e1:14:5a:a4:d9:0a:59:
         8a:dc:a7:bb:d4:5d:d5:57:98:cd:75:03:6a:8e:bf:9d:00:84:
         a4:78:57:99:34:68:66:13:2f:2c:d2:13:98:6d:5e:a8:0f:4c:
         1e:fb:57:74:e1:88:f5:19:e2:05:6e:60:4b:12:e3:c1:81:ca:
         f0:9a:77:a9:06:56:db:18:94:e0:e5:00:e9:57:17:57:a5:24:
         89:74:09:79:2f:a2:cd:c4:9e:e4:a2:e4:3d:95:b5:59:c9:27:
         ae:ff:b8:dd:ab:66:22:e8:72:df:ed:06:fa:d5:80:d2:a2:8e:
         21:4e:ab:55:d5:45:95:96:09:bb:53:12:f0:b6:a4:bf:04:58:
         9e:1e:be:c1:56:e1:41:8d:4a:d1:e6:a8:61:ca:35:3f:75:2c:
         73:f4:eb:37:37:0b:53:81:fe:8e:ca:af:bd:fe:78:e0:48:68:
         ec:c0:87:9d:9b:9a:6e:c5:a1:7a:c8:f0:fa:e7:64:d2:76:d1:
         5e:f7:0c:c9:35:08:ba:77:83:88:b8:f4:1d:fa:10:70:1d:5c:
         6e:87:96:d0
-----BEGIN CERTIFICATE-----
MIIDFDCCAfygAwIBAgIJAIrSjS89ETj1MA0GCSqGSIb3DQEBCwUAMFAxCzAJBgNV
BAYTAkpQMQ4wDAYDVQQIDAVUb2t5bzENMAsGA1UECgwESUJNSjEMMAoGA1UECwwD
VFJMMRQwEgYDVQQDDAt0cmwuaWJtLmNvbTAeFw0xNzA0MDMwMjA3MThaFw0yNzA0
MDEwMjA3MThaMEoxCzAJBgNVBAYTAkpQMQ4wDAYDVQQIDAVUb2t5bzENMAsGA1UE
CgwESUJNSjEMMAoGA1UECwwDVFJMMQ4wDAYDVQQDDAVwZWVyMTCBnzANBgkqhkiG
9w0BAQEFAAOBjQAwgYkCgYEA3GBM6xvMuiq93HF/QWZ1gAZZWp9WFmK65+M5uRrN
+OoPAk8Q31v39Dcpt4Mp3tMUa0WQwA2F7bhS6/x0Ati4XKUDmEHyNGA6S37MLbTm
Ny9DEE8D+gCJTy4hBAOsXoeGhaKAYJ82gR6dWxM0+oe4KcW8iT0Nxm2VAlSJT7sf
EHUCAwEAAaN7MHkwCQYDVR0TBAIwADAsBglghkgBhvhCAQ0EHxYdT3BlblNTTCBH
ZW5lcmF0ZWQgQ2VydGlmaWNhdGUwHQYDVR0OBBYEFA7mEfmZems31HRrcrtWc8oC
lo9CMB8GA1UdIwQYMBaAFKpGWOCwSTd0531ohWVcZ4nPoaH+MA0GCSqGSIb3DQEB
CwUAA4IBAQBE3KIbNdaxJelP0MJ3jQUrzFJaI5DGpRh5vmwcPyVrzeRHrxHT0cnL
LygVd4ahvOEUWqTZClmK3Ke71F3VV5jNdQNqjr+dAISkeFeZNGhmEy8s0hOYbV6o
D0we+1d04Yj1GeIFbmBLEuPBgcrwmnepBlbbGJTg5QDpVxdXpSSJdAl5L6LNxJ7k
ouQ9lbVZySeu/7jdq2Yi6HLf7Qb61YDSoo4hTqtV1UWVlgm7UxLwtqS/BFieHr7B
VuFBjUrR5qhhyjU/dSxz9Os3NwtTgf6Oyq+9/njgSGjswIedm5puxaF6yPD652TS
dtFe9wzJNQi6d4OIuPQd+hBwHVxuh5bQ
-----END CERTIFICATE-----
