Certificate:
    Data:
        Version: 3 (0x2)
        Serial Number: 10003212956370811124 (0x8ad28d2f3d1138f4)
    Signature Algorithm: sha256WithRSAEncryption
        Issuer: C=JP, ST=Tokyo, O=IBMJ, OU=TRL, CN=trl.ibm.com
        Validity
            Not Before: Apr  3 02:06:32 2017 GMT
            Not After : Apr  1 02:06:32 2027 GMT
        Subject: C=JP, ST=Tokyo, O=IBMJ, OU=TRL, CN=peer0
        Subject Public Key Info:
            Public Key Algorithm: rsaEncryption
                Public-Key: (1024 bit)
                Modulus:
                    00:b4:55:48:d2:7b:37:63:70:2b:a7:af:80:35:49:
                    6c:ae:54:80:b6:18:af:c0:81:1f:19:1a:d6:78:b5:
                    a2:58:cf:d6:ad:8d:26:71:fb:46:7e:a9:f6:91:8c:
                    a1:4b:8a:76:5d:f1:f5:e6:47:73:69:6d:0f:5b:6a:
                    2a:45:cb:1a:ba:23:16:2d:ba:b5:96:3b:16:2c:e0:
                    a4:ca:ba:4b:d7:be:e9:24:b7:ba:23:af:3a:26:85:
                    9e:9e:4d:86:0f:96:b0:94:65:53:e6:e6:6d:ef:ae:
                    fa:04:2c:aa:a2:71:e9:dd:60:7f:05:a1:15:55:40:
                    d9:87:5a:a4:c2:33:1e:8e:e5
                Exponent: 65537 (0x10001)
        X509v3 extensions:
            X509v3 Basic Constraints: 
                CA:FALSE
            Netscape Comment: 
                OpenSSL Generated Certificate
            X509v3 Subject Key Identifier: 
                6E:55:D2:64:82:42:3A:BF:2B:99:F1:20:31:C0:5E:46:15:5A:9A:8B
            X509v3 Authority Key Identifier: 
                keyid:AA:46:58:E0:B0:49:37:74:E7:7D:68:85:65:5C:67:89:CF:A1:A1:FE

    Signature Algorithm: sha256WithRSAEncryption
         93:6a:94:d0:51:8e:15:a0:6a:9b:98:76:fb:8e:90:dd:b1:97:
         de:3e:61:13:56:ce:e9:92:8f:16:95:79:5e:97:2d:52:51:12:
         62:63:5e:26:3b:1b:51:8d:95:37:81:d7:2e:17:86:d1:1f:63:
         a7:1c:f2:fd:a9:29:b2:a3:ea:55:4e:0a:88:31:40:02:3a:81:
         52:e3:88:d8:09:bb:8a:37:bd:bb:0d:8f:40:98:dd:3b:dc:4e:
         0c:79:b1:4c:77:67:ab:bd:8c:54:4d:31:32:6e:9a:fa:ca:ea:
         59:96:3f:05:c2:33:ae:52:9e:b9:5a:53:77:8c:a2:48:2e:15:
         41:9a:c4:c9:b9:b3:8f:0e:df:a9:40:7f:e6:38:17:c7:a8:67:
         a3:e6:1e:bd:02:e8:07:da:82:48:95:eb:bb:7c:c8:26:33:c1:
         68:e2:43:20:a2:a2:16:a9:6a:61:5c:94:06:ec:d8:ae:c4:23:
         44:ea:a4:5c:3b:f5:7d:eb:67:cc:43:2e:94:3e:3f:dc:e6:d5:
         c7:3e:51:cf:5b:51:3c:08:bb:f4:ea:df:70:aa:7f:b8:75:09:
         1a:84:f2:68:6e:d8:5a:b7:53:55:b5:95:ff:f2:bd:b7:cb:db:
         0a:25:62:51:f0:0a:60:11:70:9d:06:c2:b2:c8:20:41:e9:f6:
         f1:3b:02:81
-----BEGIN CERTIFICATE-----
MIIDFDCCAfygAwIBAgIJAIrSjS89ETj0MA0GCSqGSIb3DQEBCwUAMFAxCzAJBgNV
BAYTAkpQMQ4wDAYDVQQIDAVUb2t5bzENMAsGA1UECgwESUJNSjEMMAoGA1UECwwD
VFJMMRQwEgYDVQQDDAt0cmwuaWJtLmNvbTAeFw0xNzA0MDMwMjA2MzJaFw0yNzA0
MDEwMjA2MzJaMEoxCzAJBgNVBAYTAkpQMQ4wDAYDVQQIDAVUb2t5bzENMAsGA1UE
CgwESUJNSjEMMAoGA1UECwwDVFJMMQ4wDAYDVQQDDAVwZWVyMDCBnzANBgkqhkiG
9w0BAQEFAAOBjQAwgYkCgYEAtFVI0ns3Y3Arp6+ANUlsrlSAthivwIEfGRrWeLWi
WM/WrY0mcftGfqn2kYyhS4p2XfH15kdzaW0PW2oqRcsauiMWLbq1ljsWLOCkyrpL
177pJLe6I686JoWenk2GD5awlGVT5uZt7676BCyqonHp3WB/BaEVVUDZh1qkwjMe
juUCAwEAAaN7MHkwCQYDVR0TBAIwADAsBglghkgBhvhCAQ0EHxYdT3BlblNTTCBH
ZW5lcmF0ZWQgQ2VydGlmaWNhdGUwHQYDVR0OBBYEFG5V0mSCQjq/K5nxIDHAXkYV
WpqLMB8GA1UdIwQYMBaAFKpGWOCwSTd0531ohWVcZ4nPoaH+MA0GCSqGSIb3DQEB
CwUAA4IBAQCTapTQUY4VoGqbmHb7jpDdsZfePmETVs7pko8WlXlely1SURJiY14m
OxtRjZU3gdcuF4bRH2OnHPL9qSmyo+pVTgqIMUACOoFS44jYCbuKN727DY9AmN07
3E4MebFMd2ervYxUTTEybpr6yupZlj8FwjOuUp65WlN3jKJILhVBmsTJubOPDt+p
QH/mOBfHqGej5h69AugH2oJIleu7fMgmM8Fo4kMgoqIWqWphXJQG7NiuxCNE6qRc
O/V962fMQy6UPj/c5tXHPlHPW1E8CLv06t9wqn+4dQkahPJobthat1NVtZX/8r23
y9sKJWJR8ApgEXCdBsKyyCBB6fbxOwKB
-----END CERTIFICATE-----
